target datalayout = "e-m:e-p270:32:32-p271:32:32-p272:64:64-i64:64-i128:128-f80:128-n8:16:32:64-S128"
target triple = "x86_64-pc-linux-gnu"

%struct.PQExpBufferData = type { ptr, i64, i64 }

@.str.67 = private unnamed_addr constant [5 x i8] c"(%s)\00", align 1

; Function Attrs: nounwind uwtable
define internal void @AddAcl(ptr noundef %0, ptr noundef %1, ptr noundef %2) #0 {
  %4 = alloca ptr, align 8
  %5 = alloca ptr, align 8
  %6 = alloca ptr, align 8
  store ptr %0, ptr %4, align 8
  store ptr %1, ptr %5, align 8
  store ptr %2, ptr %6, align 8
  %7 = load ptr, ptr %4, align 8
  %8 = getelementptr inbounds nuw %struct.PQExpBufferData, ptr %7, i32 0, i32 1
  %9 = load i64, ptr %8, align 8
  %10 = icmp ugt i64 %9, 0
  br i1 %10, label %11, label %13

11:                                               ; preds = %3
  %12 = load ptr, ptr %4, align 8
  call void @appendPQExpBufferChar(ptr noundef %12, i8 noundef signext 44)
  br label %13

13:                                               ; preds = %11, %3
  %14 = load ptr, ptr %4, align 8
  %15 = load ptr, ptr %5, align 8
  call void @appendPQExpBufferStr(ptr noundef %14, ptr noundef %15)
  %16 = load ptr, ptr %6, align 8
  %17 = icmp ne ptr %16, null
  br i1 %17, label %18, label %21

18:                                               ; preds = %13
  %19 = load ptr, ptr %4, align 8
  %20 = load ptr, ptr %6, align 8
  call void (ptr, ptr, ...) @appendPQExpBuffer(ptr noundef %19, ptr noundef @.str.67, ptr noundef %20)
  br label %21

21:                                               ; preds = %18, %13
  ret void
}