; Function Attrs: nounwind uwtable
define internal fastcc void @AddAcl(ptr noundef %0, ptr noundef %1, ptr noundef %2) unnamed_addr #0 {
  %4 = getelementptr inbounds nuw i8, ptr %0, i64 8
  %5 = load i64, ptr %4, align 8
  %.not = icmp eq i64 %5, 0
  br i1 %.not, label %7, label %6

6:                                                ; preds = %3
  tail call void @appendPQExpBufferChar(ptr noundef nonnull %0, i8 noundef signext 44) #8
  br label %7

7:                                                ; preds = %6, %3
  tail call void @appendPQExpBufferStr(ptr noundef nonnull %0, ptr noundef %1) #8
  %.not7 = icmp eq ptr %2, null
  br i1 %.not7, label %9, label %8

8:                                                ; preds = %7
  tail call void (ptr, ptr, ...) @appendPQExpBuffer(ptr noundef nonnull %0, ptr noundef nonnull @.str.67, ptr noundef nonnull %2) #8
  br label %9

9:                                                ; preds = %8, %7
  ret void
}